target datalayout = "e-m:e-p270:32:32-p271:32:32-p272:64:64-i64:64-i128:128-f80:128-n8:16:32:64-S128"
target triple = "x86_64-pc-linux-gnu"

%"class.Assimp::IFC::BoundedCurve" = type { %"class.Assimp::IFC::Curve" }
%"class.Assimp::IFC::Curve" = type { ptr, ptr, ptr }
%"struct.std::pair" = type { double, double }
%"class.std::__shared_count" = type { ptr }
%"class.std::shared_ptr.132" = type { %"class.std::__shared_ptr.133" }
%"class.std::__shared_ptr.133" = type { ptr, %"class.std::__shared_count" }
%"class.Assimp::IFC::(anonymous namespace)::CompositeCurve" = type { %"class.Assimp::IFC::BoundedCurve", %"class.std::vector.49", double }
%"class.std::vector.49" = type { %"struct.std::_Vector_base.50" }
%"struct.std::_Vector_base.50" = type { %"struct.std::_Vector_base<std::pair<std::shared_ptr<Assimp::IFC::BoundedCurve>, bool>, std::allocator<std::pair<std::shared_ptr<Assimp::IFC::BoundedCurve>, bool>>>::_Vector_impl" }
%"struct.std::_Vector_base<std::pair<std::shared_ptr<Assimp::IFC::BoundedCurve>, bool>, std::allocator<std::pair<std::shared_ptr<Assimp::IFC::BoundedCurve>, bool>>>::_Vector_impl" = type { %"struct.std::_Vector_base<std::pair<std::shared_ptr<Assimp::IFC::BoundedCurve>, bool>, std::allocator<std::pair<std::shared_ptr<Assimp::IFC::BoundedCurve>, bool>>>::_Vector_impl_data" }
%"struct.std::_Vector_base<std::pair<std::shared_ptr<Assimp::IFC::BoundedCurve>, bool>, std::allocator<std::pair<std::shared_ptr<Assimp::IFC::BoundedCurve>, bool>>>::_Vector_impl_data" = type { ptr, ptr, ptr }
%"struct.std::pair.135" = type <{ %"class.std::shared_ptr.132", i8, [7 x i8] }>
%"class.__gnu_cxx::__normal_iterator.140" = type { ptr }

; Function Attrs: mustprogress nounwind uwtable
define linkonce_odr hidden noundef ptr @_ZNKSt12__shared_ptrIN6Assimp3IFC12BoundedCurveELN9__gnu_cxx12_Lock_policyE2EE3getEv(ptr noundef nonnull align 8 dereferenceable(16) %0) #2 comdat align 2 {
  %2 = alloca ptr, align 8
  store ptr %0, ptr %2, align 8
  %3 = load ptr, ptr %2, align 8
  %4 = getelementptr inbounds nuw %"class.std::__shared_ptr.133", ptr %3, i32 0, i32 0
  %5 = load ptr, ptr %4, align 8
  ret ptr %5
}

; Function Attrs: mustprogress nounwind uwtable
define linkonce_odr hidden noundef ptr @_ZNKSt19__shared_ptr_accessIN6Assimp3IFC12BoundedCurveELN9__gnu_cxx12_Lock_policyE2ELb0ELb0EE6_M_getEv(ptr noundef nonnull align 1 dereferenceable(1) %0) #2 comdat align 2 {
  %2 = alloca ptr, align 8
  store ptr %0, ptr %2, align 8
  %3 = load ptr, ptr %2, align 8
  %4 = call noundef ptr @_ZNKSt12__shared_ptrIN6Assimp3IFC12BoundedCurveELN9__gnu_cxx12_Lock_policyE2EE3getEv(ptr noundef nonnull align 8 dereferenceable(16) %3) #19
  ret ptr %4
}

; Function Attrs: mustprogress nounwind uwtable
define linkonce_odr hidden noundef nonnull align 8 dereferenceable(8) ptr @_ZNK9__gnu_cxx17__normal_iteratorIPKSt4pairISt10shared_ptrIN6Assimp3IFC12BoundedCurveEEbESt6vectorIS7_SaIS7_EEE4baseEv(ptr noundef nonnull align 8 dereferenceable(8) %0) #2 comdat align 2 {
  %2 = alloca ptr, align 8
  store ptr %0, ptr %2, align 8
  %3 = load ptr, ptr %2, align 8
  %4 = getelementptr inbounds nuw %"class.__gnu_cxx::__normal_iterator.140", ptr %3, i32 0, i32 0
  ret ptr %4
}

; Function Attrs: mustprogress nounwind uwtable
define linkonce_odr hidden void @_ZN9__gnu_cxx17__normal_iteratorIPKSt4pairISt10shared_ptrIN6Assimp3IFC12BoundedCurveEEbESt6vectorIS7_SaIS7_EEEC2ERKS9_(ptr noundef nonnull align 8 dereferenceable(8) %0, ptr noundef nonnull align 8 dereferenceable(8) %1) unnamed_addr #2 comdat align 2 {
  %3 = alloca ptr, align 8
  %4 = alloca ptr, align 8
  store ptr %0, ptr %3, align 8
  store ptr %1, ptr %4, align 8
  %5 = load ptr, ptr %3, align 8
  %6 = getelementptr inbounds nuw %"class.__gnu_cxx::__normal_iterator.140", ptr %5, i32 0, i32 0
  %7 = load ptr, ptr %4, align 8
  %8 = load ptr, ptr %7, align 8
  store ptr %8, ptr %6, align 8
  ret void
}

; Function Attrs: mustprogress nounwind uwtable
define linkonce_odr hidden noundef nonnull align 8 dereferenceable(8) ptr @_ZN9__gnu_cxx17__normal_iteratorIPKSt4pairISt10shared_ptrIN6Assimp3IFC12BoundedCurveEEbESt6vectorIS7_SaIS7_EEEppEv(ptr noundef nonnull align 8 dereferenceable(8) %0) #2 comdat align 2 {
  %2 = alloca ptr, align 8
  store ptr %0, ptr %2, align 8
  %3 = load ptr, ptr %2, align 8
  %4 = getelementptr inbounds nuw %"class.__gnu_cxx::__normal_iterator.140", ptr %3, i32 0, i32 0
  %5 = load ptr, ptr %4, align 8
  %6 = getelementptr inbounds nuw %"struct.std::pair.135", ptr %5, i32 1
  store ptr %6, ptr %4, align 8
  ret ptr %3
}

; Function Attrs: inlinehint mustprogress nounwind uwtable
define linkonce_odr noundef nonnull align 8 dereferenceable(8) ptr @_ZSt3minIdERKT_S2_S2_(ptr noundef nonnull align 8 dereferenceable(8) %0, ptr noundef nonnull align 8 dereferenceable(8) %1) #6 comdat {
  %3 = alloca ptr, align 8
  %4 = alloca ptr, align 8
  %5 = alloca ptr, align 8
  store ptr %0, ptr %4, align 8
  store ptr %1, ptr %5, align 8
  %6 = load ptr, ptr %5, align 8
  %7 = load double, ptr %6, align 8
  %8 = load ptr, ptr %4, align 8
  %9 = load double, ptr %8, align 8
  %10 = fcmp olt double %7, %9
  br i1 %10, label %11, label %13

11:                                               ; preds = %2
  %12 = load ptr, ptr %5, align 8
  store ptr %12, ptr %3, align 8
  br label %15

13:                                               ; preds = %2
  %14 = load ptr, ptr %4, align 8
  store ptr %14, ptr %3, align 8
  br label %15

15:                                               ; preds = %13, %11
  %16 = load ptr, ptr %3, align 8
  ret ptr %16
}

; Function Attrs: inlinehint mustprogress nounwind uwtable
define linkonce_odr noundef nonnull align 8 dereferenceable(8) ptr @_ZSt3maxIdERKT_S2_S2_(ptr noundef nonnull align 8 dereferenceable(8) %0, ptr noundef nonnull align 8 dereferenceable(8) %1) #6 comdat {
  %3 = alloca ptr, align 8
  %4 = alloca ptr, align 8
  %5 = alloca ptr, align 8
  store ptr %0, ptr %4, align 8
  store ptr %1, ptr %5, align 8
  %6 = load ptr, ptr %4, align 8
  %7 = load double, ptr %6, align 8
  %8 = load ptr, ptr %5, align 8
  %9 = load double, ptr %8, align 8
  %10 = fcmp olt double %7, %9
  br i1 %10, label %11, label %13

11:                                               ; preds = %2
  %12 = load ptr, ptr %5, align 8
  store ptr %12, ptr %3, align 8
  br label %15

13:                                               ; preds = %2
  %14 = load ptr, ptr %4, align 8
  store ptr %14, ptr %3, align 8
  br label %15

15:                                               ; preds = %13, %11
  %16 = load ptr, ptr %3, align 8
  ret ptr %16
}

; Function Attrs: inlinehint mustprogress nounwind uwtable
define linkonce_odr noundef double @_ZSt3absd(double noundef %0) #6 comdat {
  %2 = alloca double, align 8
  store double %0, ptr %2, align 8
  %3 = load double, ptr %2, align 8
  %4 = call double @llvm.fabs.f64(double %3)
  ret double %4
}

; Function Attrs: mustprogress nounwind uwtable
define linkonce_odr hidden noundef ptr @_ZNKSt19__shared_ptr_accessIN6Assimp3IFC12BoundedCurveELN9__gnu_cxx12_Lock_policyE2ELb0ELb0EEptEv(ptr noundef nonnull align 1 dereferenceable(1) %0) #2 comdat align 2 {
  %2 = alloca ptr, align 8
  store ptr %0, ptr %2, align 8
  %3 = load ptr, ptr %2, align 8
  %4 = call noundef ptr @_ZNKSt19__shared_ptr_accessIN6Assimp3IFC12BoundedCurveELN9__gnu_cxx12_Lock_policyE2ELb0ELb0EE6_M_getEv(ptr noundef nonnull align 1 dereferenceable(1) %3) #19
  ret ptr %4
}

; Function Attrs: mustprogress nounwind uwtable
define linkonce_odr hidden noundef nonnull align 8 dereferenceable(17) ptr @_ZNK9__gnu_cxx17__normal_iteratorIPKSt4pairISt10shared_ptrIN6Assimp3IFC12BoundedCurveEEbESt6vectorIS7_SaIS7_EEEdeEv(ptr noundef nonnull align 8 dereferenceable(8) %0) #2 comdat align 2 {
  %2 = alloca ptr, align 8
  store ptr %0, ptr %2, align 8
  %3 = load ptr, ptr %2, align 8
  %4 = getelementptr inbounds nuw %"class.__gnu_cxx::__normal_iterator.140", ptr %3, i32 0, i32 0
  %5 = load ptr, ptr %4, align 8
  ret ptr %5
}

; Function Attrs: inlinehint mustprogress nounwind uwtable
define linkonce_odr hidden noundef zeroext i1 @_ZN9__gnu_cxxneIPKSt4pairISt10shared_ptrIN6Assimp3IFC12BoundedCurveEEbESt6vectorIS7_SaIS7_EEEEbRKNS_17__normal_iteratorIT_T0_EESI_(ptr noundef nonnull align 8 dereferenceable(8) %0, ptr noundef nonnull align 8 dereferenceable(8) %1) #6 comdat {
  %3 = alloca ptr, align 8
  %4 = alloca ptr, align 8
  store ptr %0, ptr %3, align 8
  store ptr %1, ptr %4, align 8
  %5 = load ptr, ptr %3, align 8
  %6 = call noundef nonnull align 8 dereferenceable(8) ptr @_ZNK9__gnu_cxx17__normal_iteratorIPKSt4pairISt10shared_ptrIN6Assimp3IFC12BoundedCurveEEbESt6vectorIS7_SaIS7_EEE4baseEv(ptr noundef nonnull align 8 dereferenceable(8) %5) #19
  %7 = load ptr, ptr %6, align 8
  %8 = load ptr, ptr %4, align 8
  %9 = call noundef nonnull align 8 dereferenceable(8) ptr @_ZNK9__gnu_cxx17__normal_iteratorIPKSt4pairISt10shared_ptrIN6Assimp3IFC12BoundedCurveEEbESt6vectorIS7_SaIS7_EEE4baseEv(ptr noundef nonnull align 8 dereferenceable(8) %8) #19
  %10 = load ptr, ptr %9, align 8
  %11 = icmp ne ptr %7, %10
  ret i1 %11
}

; Function Attrs: mustprogress nounwind uwtable
define linkonce_odr hidden ptr @_ZNKSt6vectorISt4pairISt10shared_ptrIN6Assimp3IFC12BoundedCurveEEbESaIS6_EE3endEv(ptr noundef nonnull align 8 dereferenceable(24) %0) #2 comdat align 2 {
  %2 = alloca %"class.__gnu_cxx::__normal_iterator.140", align 8
  %3 = alloca ptr, align 8
  store ptr %0, ptr %3, align 8
  %4 = load ptr, ptr %3, align 8
  %5 = getelementptr inbounds nuw %"struct.std::_Vector_base.50", ptr %4, i32 0, i32 0
  %6 = getelementptr inbounds nuw %"struct.std::_Vector_base<std::pair<std::shared_ptr<Assimp::IFC::BoundedCurve>, bool>, std::allocator<std::pair<std::shared_ptr<Assimp::IFC::BoundedCurve>, bool>>>::_Vector_impl_data", ptr %5, i32 0, i32 1
  call void @_ZN9__gnu_cxx17__normal_iteratorIPKSt4pairISt10shared_ptrIN6Assimp3IFC12BoundedCurveEEbESt6vectorIS7_SaIS7_EEEC2ERKS9_(ptr noundef nonnull align 8 dereferenceable(8) %2, ptr noundef nonnull align 8 dereferenceable(8) %6) #19
  %7 = getelementptr inbounds nuw %"class.__gnu_cxx::__normal_iterator.140", ptr %2, i32 0, i32 0
  %8 = load ptr, ptr %7, align 8
  ret ptr %8
}

; Function Attrs: mustprogress nounwind uwtable
define linkonce_odr hidden ptr @_ZNKSt6vectorISt4pairISt10shared_ptrIN6Assimp3IFC12BoundedCurveEEbESaIS6_EE5beginEv(ptr noundef nonnull align 8 dereferenceable(24) %0) #2 comdat align 2 {
  %2 = alloca %"class.__gnu_cxx::__normal_iterator.140", align 8
  %3 = alloca ptr, align 8
  store ptr %0, ptr %3, align 8
  %4 = load ptr, ptr %3, align 8
  %5 = getelementptr inbounds nuw %"struct.std::_Vector_base.50", ptr %4, i32 0, i32 0
  %6 = getelementptr inbounds nuw %"struct.std::_Vector_base<std::pair<std::shared_ptr<Assimp::IFC::BoundedCurve>, bool>, std::allocator<std::pair<std::shared_ptr<Assimp::IFC::BoundedCurve>, bool>>>::_Vector_impl_data", ptr %5, i32 0, i32 0
  call void @_ZN9__gnu_cxx17__normal_iteratorIPKSt4pairISt10shared_ptrIN6Assimp3IFC12BoundedCurveEEbESt6vectorIS7_SaIS7_EEEC2ERKS9_(ptr noundef nonnull align 8 dereferenceable(8) %2, ptr noundef nonnull align 8 dereferenceable(8) %6) #19
  %7 = getelementptr inbounds nuw %"class.__gnu_cxx::__normal_iterator.140", ptr %2, i32 0, i32 0
  %8 = load ptr, ptr %7, align 8
  ret ptr %8
}

; Function Attrs: mustprogress uwtable
define internal noundef i64 @_ZNK6Assimp3IFC12_GLOBAL__N_114CompositeCurve19EstimateSampleCountEdd(ptr noundef nonnull align 8 dereferenceable(56) %0, double noundef %1, double noundef %2) unnamed_addr #1 align 2 {
  %4 = alloca ptr, align 8
  %5 = alloca double, align 8
  %6 = alloca double, align 8
  %7 = alloca i64, align 8
  %8 = alloca double, align 8
  %9 = alloca ptr, align 8
  %10 = alloca %"class.__gnu_cxx::__normal_iterator.140", align 8
  %11 = alloca %"class.__gnu_cxx::__normal_iterator.140", align 8
  %12 = alloca ptr, align 8
  %13 = alloca ptr, align 8
  %14 = alloca %"struct.std::pair", align 8
  %15 = alloca double, align 8
  %16 = alloca double, align 8
  %17 = alloca double, align 8
  %18 = alloca double, align 8
  %19 = alloca double, align 8
  %20 = alloca double, align 8
  store ptr %0, ptr %4, align 8
  store double %1, ptr %5, align 8
  store double %2, ptr %6, align 8
  %21 = load ptr, ptr %4, align 8
  call void @llvm.lifetime.start.p0(i64 8, ptr %7) #19
  store i64 0, ptr %7, align 8
  call void @llvm.lifetime.start.p0(i64 8, ptr %8) #19
  store double 0.000000e+00, ptr %8, align 8
  call void @llvm.lifetime.start.p0(i64 8, ptr %9) #19
  %22 = getelementptr inbounds nuw %"class.Assimp::IFC::(anonymous namespace)::CompositeCurve", ptr %21, i32 0, i32 1
  store ptr %22, ptr %9, align 8
  call void @llvm.lifetime.start.p0(i64 8, ptr %10) #19
  %23 = load ptr, ptr %9, align 8
  %24 = call ptr @_ZNKSt6vectorISt4pairISt10shared_ptrIN6Assimp3IFC12BoundedCurveEEbESaIS6_EE5beginEv(ptr noundef nonnull align 8 dereferenceable(24) %23) #19
  %25 = getelementptr inbounds nuw %"class.__gnu_cxx::__normal_iterator.140", ptr %10, i32 0, i32 0
  store ptr %24, ptr %25, align 8
  call void @llvm.lifetime.start.p0(i64 8, ptr %11) #19
  %26 = load ptr, ptr %9, align 8
  %27 = call ptr @_ZNKSt6vectorISt4pairISt10shared_ptrIN6Assimp3IFC12BoundedCurveEEbESaIS6_EE3endEv(ptr noundef nonnull align 8 dereferenceable(24) %26) #19
  %28 = getelementptr inbounds nuw %"class.__gnu_cxx::__normal_iterator.140", ptr %11, i32 0, i32 0
  store ptr %27, ptr %28, align 8
  br label %29

29:                                               ; preds = %122, %3
  %30 = call noundef zeroext i1 @_ZN9__gnu_cxxneIPKSt4pairISt10shared_ptrIN6Assimp3IFC12BoundedCurveEEbESt6vectorIS7_SaIS7_EEEEbRKNS_17__normal_iteratorIT_T0_EESI_(ptr noundef nonnull align 8 dereferenceable(8) %10, ptr noundef nonnull align 8 dereferenceable(8) %11) #19
  br i1 %30, label %32, label %31

31:                                               ; preds = %29
  call void @llvm.lifetime.end.p0(i64 8, ptr %11) #19
  call void @llvm.lifetime.end.p0(i64 8, ptr %10) #19
  call void @llvm.lifetime.end.p0(i64 8, ptr %9) #19
  br label %124

32:                                               ; preds = %29
  call void @llvm.lifetime.start.p0(i64 8, ptr %12) #19
  %33 = call noundef nonnull align 8 dereferenceable(17) ptr @_ZNK9__gnu_cxx17__normal_iteratorIPKSt4pairISt10shared_ptrIN6Assimp3IFC12BoundedCurveEEbESt6vectorIS7_SaIS7_EEEdeEv(ptr noundef nonnull align 8 dereferenceable(8) %10) #19
  store ptr %33, ptr %12, align 8
  call void @llvm.lifetime.start.p0(i64 8, ptr %13) #19
  call void @llvm.lifetime.start.p0(i64 16, ptr %14) #19
  %34 = load ptr, ptr %12, align 8
  %35 = getelementptr inbounds nuw %"struct.std::pair.135", ptr %34, i32 0, i32 0
  %36 = call noundef ptr @_ZNKSt19__shared_ptr_accessIN6Assimp3IFC12BoundedCurveELN9__gnu_cxx12_Lock_policyE2ELb0ELb0EEptEv(ptr noundef nonnull align 1 dereferenceable(1) %35) #19
  %37 = load ptr, ptr %36, align 8
  %38 = getelementptr inbounds ptr, ptr %37, i64 5
  %39 = load ptr, ptr %38, align 8
  %40 = call { double, double } %39(ptr noundef nonnull align 8 dereferenceable(24) %36)
  %41 = getelementptr inbounds nuw { double, double }, ptr %14, i32 0, i32 0
  %42 = extractvalue { double, double } %40, 0
  store double %42, ptr %41, align 8
  %43 = getelementptr inbounds nuw { double, double }, ptr %14, i32 0, i32 1
  %44 = extractvalue { double, double } %40, 1
  store double %44, ptr %43, align 8
  store ptr %14, ptr %13, align 8
  call void @llvm.lifetime.start.p0(i64 8, ptr %15) #19
  %45 = load ptr, ptr %13, align 8
  %46 = getelementptr inbounds nuw %"struct.std::pair", ptr %45, i32 0, i32 1
  %47 = load double, ptr %46, align 8
  %48 = load ptr, ptr %13, align 8
  %49 = getelementptr inbounds nuw %"struct.std::pair", ptr %48, i32 0, i32 0
  %50 = load double, ptr %49, align 8
  %51 = fsub double %47, %50
  %52 = call noundef double @_ZSt3absd(double noundef %51)
  store double %52, ptr %15, align 8
  %53 = load double, ptr %5, align 8
  %54 = load double, ptr %8, align 8
  %55 = load double, ptr %15, align 8
  %56 = fadd double %54, %55
  %57 = fcmp ole double %53, %56
  br i1 %57, label %58, label %118

58:                                               ; preds = %32
  %59 = load double, ptr %6, align 8
  %60 = load double, ptr %8, align 8
  %61 = fcmp oge double %59, %60
  br i1 %61, label %62, label %118

62:                                               ; preds = %58
  call void @llvm.lifetime.start.p0(i64 8, ptr %16) #19
  call void @llvm.lifetime.start.p0(i64 8, ptr %17) #19
  store double 0.000000e+00, ptr %17, align 8
  call void @llvm.lifetime.start.p0(i64 8, ptr %18) #19
  %63 = load double, ptr %5, align 8
  %64 = load double, ptr %8, align 8
  %65 = fsub double %63, %64
  store double %65, ptr %18, align 8
  %66 = call noundef nonnull align 8 dereferenceable(8) ptr @_ZSt3maxIdERKT_S2_S2_(ptr noundef nonnull align 8 dereferenceable(8) %17, ptr noundef nonnull align 8 dereferenceable(8) %18)
  %67 = load double, ptr %66, align 8
  call void @llvm.lifetime.end.p0(i64 8, ptr %18) #19
  call void @llvm.lifetime.end.p0(i64 8, ptr %17) #19
  store double %67, ptr %16, align 8
  call void @llvm.lifetime.start.p0(i64 8, ptr %19) #19
  call void @llvm.lifetime.start.p0(i64 8, ptr %20) #19
  %68 = load double, ptr %6, align 8
  %69 = load double, ptr %8, align 8
  %70 = fsub double %68, %69
  store double %70, ptr %20, align 8
  %71 = call noundef nonnull align 8 dereferenceable(8) ptr @_ZSt3minIdERKT_S2_S2_(ptr noundef nonnull align 8 dereferenceable(8) %15, ptr noundef nonnull align 8 dereferenceable(8) %20)
  %72 = load double, ptr %71, align 8
  call void @llvm.lifetime.end.p0(i64 8, ptr %20) #19
  store double %72, ptr %19, align 8
  %73 = load ptr, ptr %12, align 8
  %74 = getelementptr inbounds nuw %"struct.std::pair.135", ptr %73, i32 0, i32 0
  %75 = call noundef ptr @_ZNKSt19__shared_ptr_accessIN6Assimp3IFC12BoundedCurveELN9__gnu_cxx12_Lock_policyE2ELb0ELb0EEptEv(ptr noundef nonnull align 1 dereferenceable(1) %74) #19
  %76 = load ptr, ptr %12, align 8
  %77 = getelementptr inbounds nuw %"struct.std::pair.135", ptr %76, i32 0, i32 1
  %78 = load i8, ptr %77, align 8, !range !3, !noundef !4
  %79 = trunc i8 %78 to i1
  br i1 %79, label %80, label %86

80:                                               ; preds = %62
  %81 = load double, ptr %16, align 8
  %82 = load ptr, ptr %13, align 8
  %83 = getelementptr inbounds nuw %"struct.std::pair", ptr %82, i32 0, i32 0
  %84 = load double, ptr %83, align 8
  %85 = fadd double %81, %84
  br label %92

86:                                               ; preds = %62
  %87 = load ptr, ptr %13, align 8
  %88 = getelementptr inbounds nuw %"struct.std::pair", ptr %87, i32 0, i32 1
  %89 = load double, ptr %88, align 8
  %90 = load double, ptr %19, align 8
  %91 = fsub double %89, %90
  br label %92

92:                                               ; preds = %86, %80
  %93 = phi double [ %85, %80 ], [ %91, %86 ]
  %94 = load ptr, ptr %12, align 8
  %95 = getelementptr inbounds nuw %"struct.std::pair.135", ptr %94, i32 0, i32 1
  %96 = load i8, ptr %95, align 8, !range !3, !noundef !4
  %97 = trunc i8 %96 to i1
  br i1 %97, label %98, label %104

98:                                               ; preds = %92
  %99 = load double, ptr %19, align 8
  %100 = load ptr, ptr %13, align 8
  %101 = getelementptr inbounds nuw %"struct.std::pair", ptr %100, i32 0, i32 0
  %102 = load double, ptr %101, align 8
  %103 = fadd double %99, %102
  br label %110

104:                                              ; preds = %92
  %105 = load ptr, ptr %13, align 8
  %106 = getelementptr inbounds nuw %"struct.std::pair", ptr %105, i32 0, i32 1
  %107 = load double, ptr %106, align 8
  %108 = load double, ptr %16, align 8
  %109 = fsub double %107, %108
  br label %110

110:                                              ; preds = %104, %98
  %111 = phi double [ %103, %98 ], [ %109, %104 ]
  %112 = load ptr, ptr %75, align 8
  %113 = getelementptr inbounds ptr, ptr %112, i64 6
  %114 = load ptr, ptr %113, align 8
  %115 = call noundef i64 %114(ptr noundef nonnull align 8 dereferenceable(24) %75, double noundef %93, double noundef %111)
  %116 = load i64, ptr %7, align 8
  %117 = add i64 %116, %115
  store i64 %117, ptr %7, align 8
  call void @llvm.lifetime.end.p0(i64 8, ptr %19) #19
  call void @llvm.lifetime.end.p0(i64 8, ptr %16) #19
  br label %118

118:                                              ; preds = %110, %58, %32
  %119 = load double, ptr %15, align 8
  %120 = load double, ptr %8, align 8
  %121 = fadd double %120, %119
  store double %121, ptr %8, align 8
  call void @llvm.lifetime.end.p0(i64 8, ptr %15) #19
  call void @llvm.lifetime.end.p0(i64 16, ptr %14) #19
  call void @llvm.lifetime.end.p0(i64 8, ptr %13) #19
  call void @llvm.lifetime.end.p0(i64 8, ptr %12) #19
  br label %122

122:                                              ; preds = %118
  %123 = call noundef nonnull align 8 dereferenceable(8) ptr @_ZN9__gnu_cxx17__normal_iteratorIPKSt4pairISt10shared_ptrIN6Assimp3IFC12BoundedCurveEEbESt6vectorIS7_SaIS7_EEEppEv(ptr noundef nonnull align 8 dereferenceable(8) %10) #19
  br label %29

124:                                              ; preds = %31
  %125 = load i64, ptr %7, align 8
  call void @llvm.lifetime.end.p0(i64 8, ptr %8) #19
  call void @llvm.lifetime.end.p0(i64 8, ptr %7) #19
  ret i64 %125
}