; Function Attrs: mustprogress uwtable
define internal noundef i64 @_ZNK6Assimp3IFC12_GLOBAL__N_114CompositeCurve19EstimateSampleCountEdd(ptr noundef nonnull readonly align 8 captures(none) dereferenceable(56) %0, double noundef %1, double noundef %2) unnamed_addr #1 align 2 {
  %4 = getelementptr inbounds nuw i8, ptr %0, i64 24
  %5 = load ptr, ptr %4, align 8
  %6 = getelementptr inbounds nuw i8, ptr %0, i64 32
  %7 = load ptr, ptr %6, align 8
  %.not44 = icmp eq ptr %5, %7
  br i1 %.not44, label %._crit_edge, label %.lr.ph

._crit_edge:                                      ; preds = %40, %3
  %.0.lcssa = phi i64 [ 0, %3 ], [ %.1, %40 ]
  ret i64 %.0.lcssa

.lr.ph:                                           ; preds = %3, %40
  %.047 = phi i64 [ %.1, %40 ], [ 0, %3 ]
  %.02746 = phi double [ %17, %40 ], [ 0.000000e+00, %3 ]
  %.sroa.041.045 = phi ptr [ %41, %40 ], [ %5, %3 ]
  %8 = load ptr, ptr %.sroa.041.045, align 8
  %9 = load ptr, ptr %8, align 8
  %10 = getelementptr inbounds nuw i8, ptr %9, i64 40
  %11 = load ptr, ptr %10, align 8
  %12 = tail call { double, double } %11(ptr noundef nonnull align 8 dereferenceable(24) %8)
  %13 = extractvalue { double, double } %12, 0
  %14 = extractvalue { double, double } %12, 1
  %15 = fsub double %14, %13
  %16 = tail call noundef double @llvm.fabs.f64(double %15)
  %17 = fadd double %.02746, %16
  %18 = fcmp ugt double %1, %17
  %19 = fcmp ult double %2, %.02746
  %or.cond = or i1 %19, %18
  br i1 %or.cond, label %40, label %20

20:                                               ; preds = %.lr.ph
  %21 = fsub double %1, %.02746
  %22 = fcmp ogt double %21, 0.000000e+00
  %.sroa.speculated36 = select i1 %22, double %21, double 0.000000e+00
  %23 = fsub double %2, %.02746
  %24 = fcmp olt double %23, %16
  %.sroa.speculated = select i1 %24, double %23, double %16
  %25 = load ptr, ptr %.sroa.041.045, align 8
  %26 = getelementptr inbounds nuw i8, ptr %.sroa.041.045, i64 16
  %27 = load i8, ptr %26, align 8, !range !9, !noundef !39
  %28 = trunc nuw i8 %27 to i1
  %29 = fadd double %.sroa.speculated36, %13
  %30 = fsub double %14, %.sroa.speculated
  %31 = select i1 %28, double %29, double %30
  %32 = fadd double %13, %.sroa.speculated
  %33 = fsub double %14, %.sroa.speculated36
  %34 = select i1 %28, double %32, double %33
  %35 = load ptr, ptr %25, align 8
  %36 = getelementptr inbounds nuw i8, ptr %35, i64 48
  %37 = load ptr, ptr %36, align 8
  %38 = tail call noundef i64 %37(ptr noundef nonnull align 8 dereferenceable(24) %25, double noundef %31, double noundef %34)
  %39 = add i64 %38, %.047
  br label %40

40:                                               ; preds = %20, %.lr.ph
  %.1 = phi i64 [ %39, %20 ], [ %.047, %.lr.ph ]
  %41 = getelementptr inbounds nuw i8, ptr %.sroa.041.045, i64 24
  %.not = icmp eq ptr %41, %7
  br i1 %.not, label %._crit_edge, label %.lr.ph
}